; Function Attrs: nounwind uwtable
define ptr @l_Lean_PrettyPrinter_Delaborator_SubExpr_withBindingBody_x27___rarg___lambda__1(ptr noundef %0, ptr noundef %1, ptr noundef %2, ptr noundef %3, ptr noundef %4) local_unnamed_addr #0 {
  %6 = tail call ptr @l_Lean_Expr_bindingBody_x21(ptr noundef %0) #5
  %7 = tail call ptr @lean_expr_instantiate1(ptr noundef %6, ptr noundef %1) #5
  %8 = ptrtoint ptr %6 to i64
  %9 = and i64 %8, 1
  %.not = icmp eq i64 %9, 0
  br i1 %.not, label %10, label %lean_dec.exit

10:                                               ; preds = %5
  %11 = load i32, ptr %6, align 4, !tbaa !9
  %12 = icmp sgt i32 %11, 1
  br i1 %12, label %13, label %15, !prof !12

13:                                               ; preds = %10
  %14 = add nsw i32 %11, -1
  store i32 %14, ptr %6, align 4, !tbaa !9
  br label %lean_dec.exit

15:                                               ; preds = %10
  %.not.i = icmp eq i32 %11, 0
  br i1 %.not.i, label %lean_dec.exit, label %16

16:                                               ; preds = %15
  tail call void @lean_dec_ref_cold(ptr noundef nonnull %6) #5
  br label %lean_dec.exit

lean_dec.exit:                                    ; preds = %16, %15, %13, %5
  %17 = tail call ptr @lean_apply_1(ptr noundef %2, ptr noundef %4) #5
  tail call void @lean_inc_heartbeat() #5
  %18 = tail call noalias ptr @mi_malloc_small(i64 noundef 40) #5
  %19 = icmp eq ptr %18, null
  br i1 %19, label %20, label %l_Lean_PrettyPrinter_Delaborator_SubExpr_descend___rarg.exit

20:                                               ; preds = %lean_dec.exit
  tail call void @lean_internal_panic_out_of_memory() #6
  unreachable

l_Lean_PrettyPrinter_Delaborator_SubExpr_descend___rarg.exit: ; preds = %lean_dec.exit
  %21 = getelementptr inbounds nuw i8, ptr %18, i64 4
  store i32 1, ptr %18, align 4, !tbaa !9
  store i32 -184549336, ptr %21, align 4
  %22 = getelementptr inbounds nuw i8, ptr %18, i64 8
  store ptr @l_Lean_PrettyPrinter_Delaborator_SubExpr_descend___rarg___lambda__1___boxed, ptr %22, align 8, !tbaa !5
  %23 = getelementptr inbounds nuw i8, ptr %18, i64 16
  store i16 3, ptr %23, align 8, !tbaa !17
  %24 = getelementptr inbounds nuw i8, ptr %18, i64 18
  store i16 2, ptr %24, align 2, !tbaa !17
  %25 = getelementptr inbounds nuw i8, ptr %18, i64 24
  store ptr inttoptr (i64 3 to ptr), ptr %25, align 8, !tbaa !5
  %26 = getelementptr inbounds nuw i8, ptr %18, i64 32
  store ptr %7, ptr %26, align 8, !tbaa !5
  %27 = tail call ptr @lean_apply_3(ptr noundef %3, ptr noundef nonnull inttoptr (i64 1 to ptr), ptr noundef nonnull %18, ptr noundef %17) #5
  ret ptr %27
}